; Function Attrs: mustprogress nounwind uwtable
define dso_local void @_ZN5clang8comments4Sema23actOnBlockCommandFinishEPNS0_19BlockCommandCommentEPNS0_16ParagraphCommentE(ptr noundef nonnull align 8 dereferenceable(168) %0, ptr noundef %1, ptr noundef %2) local_unnamed_addr #0 align 2 {
  %4 = getelementptr inbounds nuw i8, ptr %1, i64 32
  store ptr %2, ptr %4, align 8
  %5 = getelementptr inbounds i8, ptr %2, i64 8
  %.sroa.0.0.copyload.i.i.i = load i32, ptr %5, align 4
  %.not.i = icmp eq i32 %.sroa.0.0.copyload.i.i.i, 0
  br i1 %.not.i, label %_ZN5clang8comments19BlockCommandComment12setParagraphEPNS0_16ParagraphCommentE.exit, label %6

6:                                                ; preds = %3
  %7 = getelementptr inbounds nuw i8, ptr %1, i64 4
  %.sroa.0.0.copyload.i.i4.i = load i32, ptr %7, align 4
  %.sroa.2.0.insert.ext.i = zext i32 %.sroa.0.0.copyload.i.i.i to i64
  %.sroa.2.0.insert.shift.i = shl nuw i64 %.sroa.2.0.insert.ext.i, 32
  %.sroa.0.0.insert.ext.i = zext i32 %.sroa.0.0.copyload.i.i4.i to i64
  %.sroa.0.0.insert.insert.i = or disjoint i64 %.sroa.2.0.insert.shift.i, %.sroa.0.0.insert.ext.i
  store i64 %.sroa.0.0.insert.insert.i, ptr %7, align 4
  br label %_ZN5clang8comments19BlockCommandComment12setParagraphEPNS0_16ParagraphCommentE.exit

_ZN5clang8comments19BlockCommandComment12setParagraphEPNS0_16ParagraphCommentE.exit: ; preds = %3, %6
  tail call void @_ZN5clang8comments4Sema31checkBlockCommandEmptyParagraphEPNS0_19BlockCommandCommentE(ptr noundef nonnull align 8 dereferenceable(168) %0, ptr noundef nonnull %1)
  tail call void @_ZN5clang8comments4Sema26checkBlockCommandDuplicateEPKNS0_19BlockCommandCommentE(ptr noundef nonnull align 8 dereferenceable(168) %0, ptr noundef nonnull %1)
  %8 = getelementptr inbounds nuw i8, ptr %0, i64 40
  %9 = load ptr, ptr %8, align 8
  %.not = icmp eq ptr %9, null
  br i1 %.not, label %11, label %10

10:                                               ; preds = %_ZN5clang8comments19BlockCommandComment12setParagraphEPNS0_16ParagraphCommentE.exit
  tail call void @_ZN5clang8comments4Sema19checkReturnsCommandEPKNS0_19BlockCommandCommentE(ptr noundef nonnull align 8 dereferenceable(168) %0, ptr noundef nonnull %1)
  tail call void @_ZN5clang8comments4Sema22checkDeprecatedCommandEPKNS0_19BlockCommandCommentE(ptr noundef nonnull align 8 dereferenceable(168) %0, ptr noundef nonnull %1)
  br label %11

11:                                               ; preds = %10, %_ZN5clang8comments19BlockCommandComment12setParagraphEPNS0_16ParagraphCommentE.exit
  ret void
}